; ModuleID = '44/11.c'
source_filename = "44/11.c"
target datalayout = "e-m:e-p270:32:32-p271:32:32-p272:64:64-i64:64-f80:128-n8:16:32:64-S128"
target triple = "x86_64-pc-linux-gnu"

@.str = private unnamed_addr constant [3 x i8] c"%d\00", align 1
@.str.1 = private unnamed_addr constant [4 x i8] c"%d\0A\00", align 1

; Function Attrs: noinline nounwind uwtable
define dso_local void @main() #0 {
  %1 = alloca i32, align 4
  %2 = alloca [6 x i32], align 16
  store i32 0, i32* %1, align 4
  br label %3

3:                                                ; preds = %11, %0
  %4 = load i32, i32* %1, align 4
  %5 = icmp slt i32 %4, 6
  br i1 %5, label %6, label %14

6:                                                ; preds = %3
  %7 = load i32, i32* %1, align 4
  %8 = sext i32 %7 to i64
  %9 = getelementptr inbounds [6 x i32], [6 x i32]* %2, i64 0, i64 %8
  %10 = call i32 (i8*, ...) @__isoc99_scanf(i8* getelementptr inbounds ([3 x i8], [3 x i8]* @.str, i64 0, i64 0), i32* %9)
  br label %11

11:                                               ; preds = %6
  %12 = load i32, i32* %1, align 4
  %13 = add nsw i32 %12, 1
  store i32 %13, i32* %1, align 4
  br label %3

14:                                               ; preds = %3
  store i32 0, i32* %1, align 4
  br label %15

15:                                               ; preds = %25, %14
  %16 = load i32, i32* %1, align 4
  %17 = icmp slt i32 %16, 6
  br i1 %17, label %18, label %28

18:                                               ; preds = %15
  %19 = load i32, i32* %1, align 4
  %20 = sext i32 %19 to i64
  %21 = getelementptr inbounds [6 x i32], [6 x i32]* %2, i64 0, i64 %20
  %22 = load i32, i32* %21, align 4
  %23 = call i32 @reverse(i32 %22)
  %24 = call i32 (i8*, ...) @printf(i8* getelementptr inbounds ([4 x i8], [4 x i8]* @.str.1, i64 0, i64 0), i32 %23)
  br label %25

25:                                               ; preds = %18
  %26 = load i32, i32* %1, align 4
  %27 = add nsw i32 %26, 1
  store i32 %27, i32* %1, align 4
  br label %15

28:                                               ; preds = %15
  ret void
}

declare dso_local i32 @__isoc99_scanf(i8*, ...) #1

declare dso_local i32 @printf(i8*, ...) #1

; Function Attrs: noinline nounwind uwtable
define dso_local i32 @reverse(i32 %0) #0 {
  %2 = alloca i32, align 4
  %3 = alloca i32, align 4
  %4 = alloca i32, align 4
  %5 = alloca i32, align 4
  %6 = alloca i32, align 4
  %7 = alloca i32, align 4
  %8 = alloca [8 x i32], align 16
  store i32 %0, i32* %2, align 4
  store i32 1, i32* %6, align 4
  store i32 0, i32* %7, align 4
  %9 = bitcast [8 x i32]* %8 to i8*
  call void @llvm.memset.p0i8.i64(i8* align 16 %9, i8 0, i64 32, i1 false)
  %10 = load i32, i32* %2, align 4
  %11 = icmp slt i32 %10, 0
  br i1 %11, label %12, label %15

12:                                               ; preds = %1
  store i32 1, i32* %7, align 4
  %13 = load i32, i32* %2, align 4
  %14 = sub nsw i32 0, %13
  store i32 %14, i32* %2, align 4
  br label %15

15:                                               ; preds = %12, %1
  %16 = load i32, i32* %2, align 4
  store i32 %16, i32* %3, align 4
  %17 = load i32, i32* %2, align 4
  %18 = getelementptr inbounds [8 x i32], [8 x i32]* %8, i64 0, i64 0
  store i32 %17, i32* %18, align 16
  store i32 0, i32* %4, align 4
  br label %19

19:                                               ; preds = %31, %15
  %20 = load i32, i32* %3, align 4
  %21 = sdiv i32 %20, 10
  store i32 %21, i32* %3, align 4
  %22 = load i32, i32* %3, align 4
  %23 = load i32, i32* %4, align 4
  %24 = add nsw i32 %23, 1
  %25 = sext i32 %24 to i64
  %26 = getelementptr inbounds [8 x i32], [8 x i32]* %8, i64 0, i64 %25
  store i32 %22, i32* %26, align 4
  %27 = load i32, i32* %3, align 4
  %28 = icmp eq i32 %27, 0
  br i1 %28, label %29, label %30

29:                                               ; preds = %19
  br label %34

30:                                               ; preds = %19
  br label %31

31:                                               ; preds = %30
  %32 = load i32, i32* %4, align 4
  %33 = add nsw i32 %32, 1
  store i32 %33, i32* %4, align 4
  br label %19

34:                                               ; preds = %29
  store i32 0, i32* %5, align 4
  br label %35

35:                                               ; preds = %48, %34
  %36 = load i32, i32* %5, align 4
  %37 = load i32, i32* %4, align 4
  %38 = icmp sle i32 %36, %37
  br i1 %38, label %39, label %51

39:                                               ; preds = %35
  %40 = load i32, i32* %5, align 4
  %41 = sext i32 %40 to i64
  %42 = getelementptr inbounds [8 x i32], [8 x i32]* %8, i64 0, i64 %41
  %43 = load i32, i32* %42, align 4
  %44 = srem i32 %43, 10
  %45 = load i32, i32* %5, align 4
  %46 = sext i32 %45 to i64
  %47 = getelementptr inbounds [8 x i32], [8 x i32]* %8, i64 0, i64 %46
  store i32 %44, i32* %47, align 4
  br label %48

48:                                               ; preds = %39
  %49 = load i32, i32* %5, align 4
  %50 = add nsw i32 %49, 1
  store i32 %50, i32* %5, align 4
  br label %35

51:                                               ; preds = %35
  store i32 0, i32* %3, align 4
  %52 = load i32, i32* %4, align 4
  store i32 %52, i32* %5, align 4
  br label %53

53:                                               ; preds = %64, %51
  %54 = load i32, i32* %5, align 4
  %55 = icmp sge i32 %54, 0
  br i1 %55, label %56, label %67

56:                                               ; preds = %53
  %57 = load i32, i32* %5, align 4
  %58 = sext i32 %57 to i64
  %59 = getelementptr inbounds [8 x i32], [8 x i32]* %8, i64 0, i64 %58
  %60 = load i32, i32* %59, align 4
  %61 = icmp ne i32 %60, 0
  br i1 %61, label %62, label %63

62:                                               ; preds = %56
  br label %67

63:                                               ; preds = %56
  br label %64

64:                                               ; preds = %63
  %65 = load i32, i32* %5, align 4
  %66 = add nsw i32 %65, -1
  store i32 %66, i32* %5, align 4
  br label %53

67:                                               ; preds = %62, %53
  %68 = load i32, i32* %5, align 4
  %69 = sext i32 %68 to i64
  %70 = getelementptr inbounds [8 x i32], [8 x i32]* %8, i64 0, i64 %69
  %71 = load i32, i32* %70, align 4
  store i32 %71, i32* %3, align 4
  store i32 1, i32* %4, align 4
  br label %72

72:                                               ; preds = %89, %67
  %73 = load i32, i32* %4, align 4
  %74 = load i32, i32* %5, align 4
  %75 = icmp sle i32 %73, %74
  br i1 %75, label %76, label %92

76:                                               ; preds = %72
  %77 = load i32, i32* %6, align 4
  %78 = mul nsw i32 %77, 10
  store i32 %78, i32* %6, align 4
  %79 = load i32, i32* %3, align 4
  %80 = load i32, i32* %5, align 4
  %81 = load i32, i32* %4, align 4
  %82 = sub nsw i32 %80, %81
  %83 = sext i32 %82 to i64
  %84 = getelementptr inbounds [8 x i32], [8 x i32]* %8, i64 0, i64 %83
  %85 = load i32, i32* %84, align 4
  %86 = load i32, i32* %6, align 4
  %87 = mul nsw i32 %85, %86
  %88 = add nsw i32 %79, %87
  store i32 %88, i32* %3, align 4
  br label %89

89:                                               ; preds = %76
  %90 = load i32, i32* %4, align 4
  %91 = add nsw i32 %90, 1
  store i32 %91, i32* %4, align 4
  br label %72

92:                                               ; preds = %72
  %93 = load i32, i32* %7, align 4
  %94 = icmp eq i32 %93, 1
  br i1 %94, label %95, label %98

95:                                               ; preds = %92
  %96 = load i32, i32* %3, align 4
  %97 = sub nsw i32 0, %96
  store i32 %97, i32* %3, align 4
  br label %98

98:                                               ; preds = %95, %92
  %99 = load i32, i32* %3, align 4
  ret i32 %99
}

; Function Attrs: argmemonly nounwind willreturn
declare void @llvm.memset.p0i8.i64(i8* nocapture writeonly, i8, i64, i1 immarg) #2


!llvm.module.flags = !{!0}
!llvm.ident = !{!1}

!0 = !{i32 1, !"wchar_size", i32 4}
!1 = !{!"clang version 10.0.0-4ubuntu1 "}
